target datalayout = "e-m:e-p270:32:32-p271:32:32-p272:64:64-i64:64-i128:128-f80:128-n8:16:32:64-S128"
target triple = "x86_64-pc-linux-gnu"

%struct.opj_jp2 = type { ptr, ptr, ptr, i32, i32, i32, i32, i32, i32, i32, i32, i32, i32, i32, i32, i32, i32, ptr, ptr, i64, i64, i32, i32, i32, %struct.opj_jp2_color, i32, i8, i8 }
%struct.opj_jp2_color = type { ptr, i32, ptr, ptr, i8 }
%struct.opj_jp2_cdef = type { ptr, i16 }
%struct.opj_jp2_cdef_info = type { i16, i16, i16 }

; Function Attrs: nounwind uwtable
define internal ptr @opj_jp2_write_cdef(ptr noundef %0, ptr noundef %1) #0 {
  %3 = alloca ptr, align 8
  %4 = alloca ptr, align 8
  %5 = alloca ptr, align 8
  %6 = alloca i32, align 4
  %7 = alloca ptr, align 8
  %8 = alloca ptr, align 8
  %9 = alloca i32, align 4
  %10 = alloca i16, align 2
  %11 = alloca i32, align 4
  store ptr %0, ptr %4, align 8, !tbaa !3
  store ptr %1, ptr %5, align 8, !tbaa !105
  call void @llvm.lifetime.start.p0(i64 4, ptr %6) #5
  store i32 10, ptr %6, align 4, !tbaa !39
  call void @llvm.lifetime.start.p0(i64 8, ptr %7) #5
  call void @llvm.lifetime.start.p0(i64 8, ptr %8) #5
  call void @llvm.lifetime.start.p0(i64 4, ptr %9) #5
  call void @llvm.lifetime.start.p0(i64 2, ptr %10) #5
  %12 = load ptr, ptr %4, align 8, !tbaa !3
  %13 = getelementptr inbounds nuw %struct.opj_jp2, ptr %12, i32 0, i32 24
  %14 = getelementptr inbounds nuw %struct.opj_jp2_color, ptr %13, i32 0, i32 2
  %15 = load ptr, ptr %14, align 8, !tbaa !33
  %16 = getelementptr inbounds nuw %struct.opj_jp2_cdef, ptr %15, i32 0, i32 1
  %17 = load i16, ptr %16, align 8, !tbaa !79
  %18 = zext i16 %17 to i32
  %19 = mul i32 6, %18
  %20 = load i32, ptr %6, align 4, !tbaa !39
  %21 = add i32 %20, %19
  store i32 %21, ptr %6, align 4, !tbaa !39
  %22 = load i32, ptr %6, align 4, !tbaa !39
  %23 = zext i32 %22 to i64
  %24 = call ptr @opj_malloc(i64 noundef %23)
  store ptr %24, ptr %7, align 8, !tbaa !106
  %25 = load ptr, ptr %7, align 8, !tbaa !106
  %26 = icmp eq ptr %25, null
  br i1 %26, label %27, label %28

27:                                               ; preds = %2
  store ptr null, ptr %3, align 8
  store i32 1, ptr %11, align 4
  br label %115

28:                                               ; preds = %2
  %29 = load ptr, ptr %7, align 8, !tbaa !106
  store ptr %29, ptr %8, align 8, !tbaa !106
  %30 = load ptr, ptr %8, align 8, !tbaa !106
  %31 = load i32, ptr %6, align 4, !tbaa !39
  call void @opj_write_bytes_LE(ptr noundef %30, i32 noundef %31, i32 noundef 4)
  %32 = load ptr, ptr %8, align 8, !tbaa !106
  %33 = getelementptr inbounds i8, ptr %32, i64 4
  store ptr %33, ptr %8, align 8, !tbaa !106
  %34 = load ptr, ptr %8, align 8, !tbaa !106
  call void @opj_write_bytes_LE(ptr noundef %34, i32 noundef 1667523942, i32 noundef 4)
  %35 = load ptr, ptr %8, align 8, !tbaa !106
  %36 = getelementptr inbounds i8, ptr %35, i64 4
  store ptr %36, ptr %8, align 8, !tbaa !106
  %37 = load ptr, ptr %4, align 8, !tbaa !3
  %38 = getelementptr inbounds nuw %struct.opj_jp2, ptr %37, i32 0, i32 24
  %39 = getelementptr inbounds nuw %struct.opj_jp2_color, ptr %38, i32 0, i32 2
  %40 = load ptr, ptr %39, align 8, !tbaa !33
  %41 = getelementptr inbounds nuw %struct.opj_jp2_cdef, ptr %40, i32 0, i32 1
  %42 = load i16, ptr %41, align 8, !tbaa !79
  %43 = zext i16 %42 to i32
  store i32 %43, ptr %9, align 4, !tbaa !39
  %44 = load ptr, ptr %8, align 8, !tbaa !106
  %45 = load i32, ptr %9, align 4, !tbaa !39
  call void @opj_write_bytes_LE(ptr noundef %44, i32 noundef %45, i32 noundef 2)
  %46 = load ptr, ptr %8, align 8, !tbaa !106
  %47 = getelementptr inbounds i8, ptr %46, i64 2
  store ptr %47, ptr %8, align 8, !tbaa !106
  store i16 0, ptr %10, align 2, !tbaa !118
  br label %48

48:                                               ; preds = %108, %28
  %49 = load i16, ptr %10, align 2, !tbaa !118
  %50 = zext i16 %49 to i32
  %51 = load ptr, ptr %4, align 8, !tbaa !3
  %52 = getelementptr inbounds nuw %struct.opj_jp2, ptr %51, i32 0, i32 24
  %53 = getelementptr inbounds nuw %struct.opj_jp2_color, ptr %52, i32 0, i32 2
  %54 = load ptr, ptr %53, align 8, !tbaa !33
  %55 = getelementptr inbounds nuw %struct.opj_jp2_cdef, ptr %54, i32 0, i32 1
  %56 = load i16, ptr %55, align 8, !tbaa !79
  %57 = zext i16 %56 to i32
  %58 = icmp slt i32 %50, %57
  br i1 %58, label %59, label %111

59:                                               ; preds = %48
  %60 = load ptr, ptr %4, align 8, !tbaa !3
  %61 = getelementptr inbounds nuw %struct.opj_jp2, ptr %60, i32 0, i32 24
  %62 = getelementptr inbounds nuw %struct.opj_jp2_color, ptr %61, i32 0, i32 2
  %63 = load ptr, ptr %62, align 8, !tbaa !33
  %64 = getelementptr inbounds nuw %struct.opj_jp2_cdef, ptr %63, i32 0, i32 0
  %65 = load ptr, ptr %64, align 8, !tbaa !76
  %66 = load i16, ptr %10, align 2, !tbaa !118
  %67 = zext i16 %66 to i64
  %68 = getelementptr inbounds nuw %struct.opj_jp2_cdef_info, ptr %65, i64 %67
  %69 = getelementptr inbounds nuw %struct.opj_jp2_cdef_info, ptr %68, i32 0, i32 0
  %70 = load i16, ptr %69, align 2, !tbaa !80
  %71 = zext i16 %70 to i32
  store i32 %71, ptr %9, align 4, !tbaa !39
  %72 = load ptr, ptr %8, align 8, !tbaa !106
  %73 = load i32, ptr %9, align 4, !tbaa !39
  call void @opj_write_bytes_LE(ptr noundef %72, i32 noundef %73, i32 noundef 2)
  %74 = load ptr, ptr %8, align 8, !tbaa !106
  %75 = getelementptr inbounds i8, ptr %74, i64 2
  store ptr %75, ptr %8, align 8, !tbaa !106
  %76 = load ptr, ptr %4, align 8, !tbaa !3
  %77 = getelementptr inbounds nuw %struct.opj_jp2, ptr %76, i32 0, i32 24
  %78 = getelementptr inbounds nuw %struct.opj_jp2_color, ptr %77, i32 0, i32 2
  %79 = load ptr, ptr %78, align 8, !tbaa !33
  %80 = getelementptr inbounds nuw %struct.opj_jp2_cdef, ptr %79, i32 0, i32 0
  %81 = load ptr, ptr %80, align 8, !tbaa !76
  %82 = load i16, ptr %10, align 2, !tbaa !118
  %83 = zext i16 %82 to i64
  %84 = getelementptr inbounds nuw %struct.opj_jp2_cdef_info, ptr %81, i64 %83
  %85 = getelementptr inbounds nuw %struct.opj_jp2_cdef_info, ptr %84, i32 0, i32 1
  %86 = load i16, ptr %85, align 2, !tbaa !82
  %87 = zext i16 %86 to i32
  store i32 %87, ptr %9, align 4, !tbaa !39
  %88 = load ptr, ptr %8, align 8, !tbaa !106
  %89 = load i32, ptr %9, align 4, !tbaa !39
  call void @opj_write_bytes_LE(ptr noundef %88, i32 noundef %89, i32 noundef 2)
  %90 = load ptr, ptr %8, align 8, !tbaa !106
  %91 = getelementptr inbounds i8, ptr %90, i64 2
  store ptr %91, ptr %8, align 8, !tbaa !106
  %92 = load ptr, ptr %4, align 8, !tbaa !3
  %93 = getelementptr inbounds nuw %struct.opj_jp2, ptr %92, i32 0, i32 24
  %94 = getelementptr inbounds nuw %struct.opj_jp2_color, ptr %93, i32 0, i32 2
  %95 = load ptr, ptr %94, align 8, !tbaa !33
  %96 = getelementptr inbounds nuw %struct.opj_jp2_cdef, ptr %95, i32 0, i32 0
  %97 = load ptr, ptr %96, align 8, !tbaa !76
  %98 = load i16, ptr %10, align 2, !tbaa !118
  %99 = zext i16 %98 to i64
  %100 = getelementptr inbounds nuw %struct.opj_jp2_cdef_info, ptr %97, i64 %99
  %101 = getelementptr inbounds nuw %struct.opj_jp2_cdef_info, ptr %100, i32 0, i32 2
  %102 = load i16, ptr %101, align 2, !tbaa !83
  %103 = zext i16 %102 to i32
  store i32 %103, ptr %9, align 4, !tbaa !39
  %104 = load ptr, ptr %8, align 8, !tbaa !106
  %105 = load i32, ptr %9, align 4, !tbaa !39
  call void @opj_write_bytes_LE(ptr noundef %104, i32 noundef %105, i32 noundef 2)
  %106 = load ptr, ptr %8, align 8, !tbaa !106
  %107 = getelementptr inbounds i8, ptr %106, i64 2
  store ptr %107, ptr %8, align 8, !tbaa !106
  br label %108

108:                                              ; preds = %59
  %109 = load i16, ptr %10, align 2, !tbaa !118
  %110 = add i16 %109, 1
  store i16 %110, ptr %10, align 2, !tbaa !118
  br label %48, !llvm.loop !200

111:                                              ; preds = %48
  %112 = load i32, ptr %6, align 4, !tbaa !39
  %113 = load ptr, ptr %5, align 8, !tbaa !105
  store i32 %112, ptr %113, align 4, !tbaa !39
  %114 = load ptr, ptr %7, align 8, !tbaa !106
  store ptr %114, ptr %3, align 8
  store i32 1, ptr %11, align 4
  br label %115

115:                                              ; preds = %111, %27
  call void @llvm.lifetime.end.p0(i64 2, ptr %10) #5
  call void @llvm.lifetime.end.p0(i64 4, ptr %9) #5
  call void @llvm.lifetime.end.p0(i64 8, ptr %8) #5
  call void @llvm.lifetime.end.p0(i64 8, ptr %7) #5
  call void @llvm.lifetime.end.p0(i64 4, ptr %6) #5
  %116 = load ptr, ptr %3, align 8
  ret ptr %116
}