; Function Attrs: nounwind uwtable
define internal ptr @opj_jp2_write_cdef(ptr noundef readonly captures(none) %0, ptr noundef writeonly captures(none) %1) #0 {
  %3 = getelementptr inbounds nuw i8, ptr %0, i64 144
  %4 = load ptr, ptr %3, align 8, !tbaa !70
  %5 = getelementptr inbounds nuw i8, ptr %4, i64 8
  %6 = load i16, ptr %5, align 8, !tbaa !26
  %7 = zext i16 %6 to i32
  %8 = mul nuw nsw i32 %7, 6
  %9 = add nuw nsw i32 %8, 10
  %10 = zext nneg i32 %9 to i64
  %11 = tail call ptr @opj_malloc(i64 noundef %10) #6
  %12 = icmp eq ptr %11, null
  br i1 %12, label %47, label %13

13:                                               ; preds = %2
  tail call void @opj_write_bytes_LE(ptr noundef nonnull %11, i32 noundef %9, i32 noundef 4) #6
  %14 = getelementptr inbounds nuw i8, ptr %11, i64 4
  tail call void @opj_write_bytes_LE(ptr noundef nonnull %14, i32 noundef 1667523942, i32 noundef 4) #6
  %15 = getelementptr inbounds nuw i8, ptr %11, i64 8
  %16 = load ptr, ptr %3, align 8, !tbaa !70
  %17 = getelementptr inbounds nuw i8, ptr %16, i64 8
  %18 = load i16, ptr %17, align 8, !tbaa !26
  %19 = zext i16 %18 to i32
  tail call void @opj_write_bytes_LE(ptr noundef nonnull %15, i32 noundef %19, i32 noundef 2) #6
  %20 = load ptr, ptr %3, align 8, !tbaa !70
  %21 = getelementptr inbounds nuw i8, ptr %20, i64 8
  %22 = load i16, ptr %21, align 8, !tbaa !26
  %.not = icmp eq i16 %22, 0
  br i1 %.not, label %._crit_edge, label %.lr.ph.preheader

.lr.ph.preheader:                                 ; preds = %13
  %23 = getelementptr inbounds nuw i8, ptr %11, i64 10
  br label %.lr.ph

.lr.ph:                                           ; preds = %.lr.ph.preheader, %.lr.ph
  %indvars.iv = phi i64 [ 0, %.lr.ph.preheader ], [ %indvars.iv.next, %.lr.ph ]
  %24 = phi ptr [ %20, %.lr.ph.preheader ], [ %42, %.lr.ph ]
  %.03538 = phi ptr [ %23, %.lr.ph.preheader ], [ %41, %.lr.ph ]
  %25 = load ptr, ptr %24, align 8, !tbaa !22
  %26 = getelementptr inbounds nuw %struct.opj_jp2_cdef_info, ptr %25, i64 %indvars.iv
  %27 = load i16, ptr %26, align 2, !tbaa !34
  %28 = zext i16 %27 to i32
  tail call void @opj_write_bytes_LE(ptr noundef nonnull %.03538, i32 noundef %28, i32 noundef 2) #6
  %29 = getelementptr inbounds nuw i8, ptr %.03538, i64 2
  %30 = load ptr, ptr %3, align 8, !tbaa !70
  %31 = load ptr, ptr %30, align 8, !tbaa !22
  %32 = getelementptr inbounds nuw %struct.opj_jp2_cdef_info, ptr %31, i64 %indvars.iv, i32 1
  %33 = load i16, ptr %32, align 2, !tbaa !71
  %34 = zext i16 %33 to i32
  tail call void @opj_write_bytes_LE(ptr noundef nonnull %29, i32 noundef %34, i32 noundef 2) #6
  %35 = getelementptr inbounds nuw i8, ptr %.03538, i64 4
  %36 = load ptr, ptr %3, align 8, !tbaa !70
  %37 = load ptr, ptr %36, align 8, !tbaa !22
  %38 = getelementptr inbounds nuw %struct.opj_jp2_cdef_info, ptr %37, i64 %indvars.iv, i32 2
  %39 = load i16, ptr %38, align 2, !tbaa !39
  %40 = zext i16 %39 to i32
  tail call void @opj_write_bytes_LE(ptr noundef nonnull %35, i32 noundef %40, i32 noundef 2) #6
  %41 = getelementptr inbounds nuw i8, ptr %.03538, i64 6
  %indvars.iv.next = add nuw nsw i64 %indvars.iv, 1
  %42 = load ptr, ptr %3, align 8, !tbaa !70
  %43 = getelementptr inbounds nuw i8, ptr %42, i64 8
  %44 = load i16, ptr %43, align 8, !tbaa !26
  %45 = zext i16 %44 to i64
  %46 = icmp samesign ult i64 %indvars.iv.next, %45
  br i1 %46, label %.lr.ph, label %._crit_edge, !llvm.loop !164

._crit_edge:                                      ; preds = %.lr.ph, %13
  store i32 %9, ptr %1, align 4, !tbaa !46
  br label %47

47:                                               ; preds = %2, %._crit_edge
  ret ptr %11
}